target datalayout = "e-m:e-p270:32:32-p271:32:32-p272:64:64-i64:64-i128:128-f80:128-n8:16:32:64-S128"
target triple = "x86_64-pc-linux-gnu"

%"class.std::unique_ptr" = type { %"struct.std::__uniq_ptr_data" }
%"struct.std::__uniq_ptr_data" = type { %"class.std::__uniq_ptr_impl" }
%"class.std::__uniq_ptr_impl" = type { %"class.std::tuple" }
%"class.std::tuple" = type { %"struct.std::_Tuple_impl" }
%"struct.std::_Tuple_impl" = type { %"struct.std::_Head_base.11" }
%"struct.std::_Head_base.11" = type { ptr }
%"class.__gnu_cxx::__normal_iterator.20" = type { ptr }

; Function Attrs: mustprogress nounwind uwtable
define linkonce_odr hidden noundef nonnull align 8 dereferenceable(8) ptr @_ZNSt10_Head_baseILm0EPN3ue215RoseInstructionELb0EE7_M_headERKS3_(ptr noundef nonnull align 8 dereferenceable(8) %0) #1 comdat align 2 {
  %2 = alloca ptr, align 8
  store ptr %0, ptr %2, align 8
  %3 = load ptr, ptr %2, align 8
  %4 = getelementptr inbounds nuw %"struct.std::_Head_base.11", ptr %3, i32 0, i32 0
  ret ptr %4
}

; Function Attrs: mustprogress nounwind uwtable
define linkonce_odr hidden noundef nonnull align 8 dereferenceable(8) ptr @_ZNSt11_Tuple_implILm0EJPN3ue215RoseInstructionESt14default_deleteIS1_EEE7_M_headERKS5_(ptr noundef nonnull align 8 dereferenceable(8) %0) #1 comdat align 2 {
  %2 = alloca ptr, align 8
  store ptr %0, ptr %2, align 8
  %3 = load ptr, ptr %2, align 8
  %4 = call noundef nonnull align 8 dereferenceable(8) ptr @_ZNSt10_Head_baseILm0EPN3ue215RoseInstructionELb0EE7_M_headERKS3_(ptr noundef nonnull align 8 dereferenceable(8) %3) #23
  ret ptr %4
}

; Function Attrs: mustprogress nounwind uwtable
define linkonce_odr hidden noundef nonnull align 8 dereferenceable(8) ptr @_ZSt12__get_helperILm0EPN3ue215RoseInstructionEJSt14default_deleteIS1_EEERKT0_RKSt11_Tuple_implIXT_EJS5_DpT1_EE(ptr noundef nonnull align 8 dereferenceable(8) %0) #1 comdat {
  %2 = alloca ptr, align 8
  store ptr %0, ptr %2, align 8
  %3 = load ptr, ptr %2, align 8
  %4 = call noundef nonnull align 8 dereferenceable(8) ptr @_ZNSt11_Tuple_implILm0EJPN3ue215RoseInstructionESt14default_deleteIS1_EEE7_M_headERKS5_(ptr noundef nonnull align 8 dereferenceable(8) %3) #23
  ret ptr %4
}

; Function Attrs: mustprogress nounwind uwtable
define linkonce_odr hidden noundef nonnull align 8 dereferenceable(8) ptr @_ZSt3getILm0EJPN3ue215RoseInstructionESt14default_deleteIS1_EEERKNSt13tuple_elementIXT_ESt5tupleIJDpT0_EEE4typeERKS9_(ptr noundef nonnull align 8 dereferenceable(8) %0) #1 comdat {
  %2 = alloca ptr, align 8
  store ptr %0, ptr %2, align 8
  %3 = load ptr, ptr %2, align 8
  %4 = call noundef nonnull align 8 dereferenceable(8) ptr @_ZSt12__get_helperILm0EPN3ue215RoseInstructionEJSt14default_deleteIS1_EEERKT0_RKSt11_Tuple_implIXT_EJS5_DpT1_EE(ptr noundef nonnull align 8 dereferenceable(8) %3) #23
  ret ptr %4
}

; Function Attrs: mustprogress nounwind uwtable
define linkonce_odr hidden noundef ptr @_ZNKSt15__uniq_ptr_implIN3ue215RoseInstructionESt14default_deleteIS1_EE6_M_ptrEv(ptr noundef nonnull align 8 dereferenceable(8) %0) #1 comdat align 2 {
  %2 = alloca ptr, align 8
  store ptr %0, ptr %2, align 8
  %3 = load ptr, ptr %2, align 8
  %4 = getelementptr inbounds nuw %"class.std::__uniq_ptr_impl", ptr %3, i32 0, i32 0
  %5 = call noundef nonnull align 8 dereferenceable(8) ptr @_ZSt3getILm0EJPN3ue215RoseInstructionESt14default_deleteIS1_EEERKNSt13tuple_elementIXT_ESt5tupleIJDpT0_EEE4typeERKS9_(ptr noundef nonnull align 8 dereferenceable(8) %4) #23
  %6 = load ptr, ptr %5, align 8
  ret ptr %6
}

; Function Attrs: mustprogress nounwind uwtable
define linkonce_odr hidden noundef ptr @_ZNKSt10unique_ptrIN3ue215RoseInstructionESt14default_deleteIS1_EE3getEv(ptr noundef nonnull align 8 dereferenceable(8) %0) #1 comdat align 2 {
  %2 = alloca ptr, align 8
  store ptr %0, ptr %2, align 8
  %3 = load ptr, ptr %2, align 8
  %4 = getelementptr inbounds nuw %"class.std::unique_ptr", ptr %3, i32 0, i32 0
  %5 = call noundef ptr @_ZNKSt15__uniq_ptr_implIN3ue215RoseInstructionESt14default_deleteIS1_EE6_M_ptrEv(ptr noundef nonnull align 8 dereferenceable(8) %4) #23
  ret ptr %5
}

; Function Attrs: mustprogress nounwind uwtable
define linkonce_odr hidden noundef nonnull align 8 dereferenceable(8) ptr @_ZNK9__gnu_cxx17__normal_iteratorIPSt10unique_ptrIN3ue215RoseInstructionESt14default_deleteIS3_EESt6vectorIS6_SaIS6_EEE4baseEv(ptr noundef nonnull align 8 dereferenceable(8) %0) #1 comdat align 2 {
  %2 = alloca ptr, align 8
  store ptr %0, ptr %2, align 8
  %3 = load ptr, ptr %2, align 8
  %4 = getelementptr inbounds nuw %"class.__gnu_cxx::__normal_iterator.20", ptr %3, i32 0, i32 0
  ret ptr %4
}

; Function Attrs: mustprogress nounwind uwtable
define linkonce_odr hidden noundef nonnull align 8 dereferenceable(8) ptr @_ZN9__gnu_cxx17__normal_iteratorIPSt10unique_ptrIN3ue215RoseInstructionESt14default_deleteIS3_EESt6vectorIS6_SaIS6_EEEppEv(ptr noundef nonnull align 8 dereferenceable(8) %0) #1 comdat align 2 {
  %2 = alloca ptr, align 8
  store ptr %0, ptr %2, align 8
  %3 = load ptr, ptr %2, align 8
  %4 = getelementptr inbounds nuw %"class.__gnu_cxx::__normal_iterator.20", ptr %3, i32 0, i32 0
  %5 = load ptr, ptr %4, align 8
  %6 = getelementptr inbounds nuw %"class.std::unique_ptr", ptr %5, i32 1
  store ptr %6, ptr %4, align 8
  ret ptr %3
}

; Function Attrs: mustprogress nounwind uwtable
define linkonce_odr hidden noundef ptr @_ZNKSt10unique_ptrIN3ue215RoseInstructionESt14default_deleteIS1_EEptEv(ptr noundef nonnull align 8 dereferenceable(8) %0) #1 comdat align 2 {
  %2 = alloca ptr, align 8
  store ptr %0, ptr %2, align 8
  %3 = load ptr, ptr %2, align 8
  %4 = call noundef ptr @_ZNKSt10unique_ptrIN3ue215RoseInstructionESt14default_deleteIS1_EE3getEv(ptr noundef nonnull align 8 dereferenceable(8) %3) #23
  ret ptr %4
}

; Function Attrs: mustprogress nounwind uwtable
define linkonce_odr hidden noundef nonnull align 8 dereferenceable(8) ptr @_ZNK9__gnu_cxx17__normal_iteratorIPSt10unique_ptrIN3ue215RoseInstructionESt14default_deleteIS3_EESt6vectorIS6_SaIS6_EEEdeEv(ptr noundef nonnull align 8 dereferenceable(8) %0) #1 comdat align 2 {
  %2 = alloca ptr, align 8
  store ptr %0, ptr %2, align 8
  %3 = load ptr, ptr %2, align 8
  %4 = getelementptr inbounds nuw %"class.__gnu_cxx::__normal_iterator.20", ptr %3, i32 0, i32 0
  %5 = load ptr, ptr %4, align 8
  ret ptr %5
}

; Function Attrs: inlinehint mustprogress nounwind uwtable
define linkonce_odr hidden noundef zeroext i1 @_ZN9__gnu_cxxneIPSt10unique_ptrIN3ue215RoseInstructionESt14default_deleteIS3_EESt6vectorIS6_SaIS6_EEEEbRKNS_17__normal_iteratorIT_T0_EESG_(ptr noundef nonnull align 8 dereferenceable(8) %0, ptr noundef nonnull align 8 dereferenceable(8) %1) #8 comdat {
  %3 = alloca ptr, align 8
  %4 = alloca ptr, align 8
  store ptr %0, ptr %3, align 8
  store ptr %1, ptr %4, align 8
  %5 = load ptr, ptr %3, align 8
  %6 = call noundef nonnull align 8 dereferenceable(8) ptr @_ZNK9__gnu_cxx17__normal_iteratorIPSt10unique_ptrIN3ue215RoseInstructionESt14default_deleteIS3_EESt6vectorIS6_SaIS6_EEE4baseEv(ptr noundef nonnull align 8 dereferenceable(8) %5) #23
  %7 = load ptr, ptr %6, align 8
  %8 = load ptr, ptr %4, align 8
  %9 = call noundef nonnull align 8 dereferenceable(8) ptr @_ZNK9__gnu_cxx17__normal_iteratorIPSt10unique_ptrIN3ue215RoseInstructionESt14default_deleteIS3_EESt6vectorIS6_SaIS6_EEE4baseEv(ptr noundef nonnull align 8 dereferenceable(8) %8) #23
  %10 = load ptr, ptr %9, align 8
  %11 = icmp ne ptr %7, %10
  ret i1 %11
}

; Function Attrs: mustprogress uwtable
define hidden void @_ZN3ue211RoseProgram14update_targetsEN9__gnu_cxx17__normal_iteratorIPSt10unique_ptrINS_15RoseInstructionESt14default_deleteIS4_EESt6vectorIS7_SaIS7_EEEESC_PKS4_SE_(ptr %0, ptr %1, ptr noundef %2, ptr noundef %3) #3 align 2 {
  %5 = alloca %"class.__gnu_cxx::__normal_iterator.20", align 8
  %6 = alloca %"class.__gnu_cxx::__normal_iterator.20", align 8
  %7 = alloca ptr, align 8
  %8 = alloca ptr, align 8
  %9 = alloca ptr, align 8
  %10 = getelementptr inbounds nuw %"class.__gnu_cxx::__normal_iterator.20", ptr %5, i32 0, i32 0
  store ptr %0, ptr %10, align 8
  %11 = getelementptr inbounds nuw %"class.__gnu_cxx::__normal_iterator.20", ptr %6, i32 0, i32 0
  store ptr %1, ptr %11, align 8
  store ptr %2, ptr %7, align 8
  store ptr %3, ptr %8, align 8
  br label %12

12:                                               ; preds = %23, %4
  %13 = call noundef zeroext i1 @_ZN9__gnu_cxxneIPSt10unique_ptrIN3ue215RoseInstructionESt14default_deleteIS3_EESt6vectorIS6_SaIS6_EEEEbRKNS_17__normal_iteratorIT_T0_EESG_(ptr noundef nonnull align 8 dereferenceable(8) %5, ptr noundef nonnull align 8 dereferenceable(8) %6) #23
  br i1 %13, label %14, label %25

14:                                               ; preds = %12
  call void @llvm.lifetime.start.p0(i64 8, ptr %9) #23
  %15 = call noundef nonnull align 8 dereferenceable(8) ptr @_ZNK9__gnu_cxx17__normal_iteratorIPSt10unique_ptrIN3ue215RoseInstructionESt14default_deleteIS3_EESt6vectorIS6_SaIS6_EEEdeEv(ptr noundef nonnull align 8 dereferenceable(8) %5) #23
  store ptr %15, ptr %9, align 8
  %16 = load ptr, ptr %9, align 8
  %17 = call noundef ptr @_ZNKSt10unique_ptrIN3ue215RoseInstructionESt14default_deleteIS1_EEptEv(ptr noundef nonnull align 8 dereferenceable(8) %16) #23
  %18 = load ptr, ptr %7, align 8
  %19 = load ptr, ptr %8, align 8
  %20 = load ptr, ptr %17, align 8
  %21 = getelementptr inbounds ptr, ptr %20, i64 6
  %22 = load ptr, ptr %21, align 8
  call void %22(ptr noundef nonnull align 8 dereferenceable(8) %17, ptr noundef %18, ptr noundef %19)
  call void @llvm.lifetime.end.p0(i64 8, ptr %9) #23
  br label %23

23:                                               ; preds = %14
  %24 = call noundef nonnull align 8 dereferenceable(8) ptr @_ZN9__gnu_cxx17__normal_iteratorIPSt10unique_ptrIN3ue215RoseInstructionESt14default_deleteIS3_EESt6vectorIS6_SaIS6_EEEppEv(ptr noundef nonnull align 8 dereferenceable(8) %5) #23
  br label %12, !llvm.loop !7

25:                                               ; preds = %12
  ret void
}