; Function Attrs: mustprogress uwtable
define hidden void @_ZN3ue211RoseProgram14update_targetsEN9__gnu_cxx17__normal_iteratorIPSt10unique_ptrINS_15RoseInstructionESt14default_deleteIS4_EESt6vectorIS7_SaIS7_EEEESC_PKS4_SE_(ptr readonly %0, ptr readnone %1, ptr noundef %2, ptr noundef %3) local_unnamed_addr #0 align 2 {
  %.not6 = icmp eq ptr %0, %1
  br i1 %.not6, label %._crit_edge, label %.lr.ph

.lr.ph:                                           ; preds = %4, %.lr.ph
  %.sroa.03.07 = phi ptr [ %9, %.lr.ph ], [ %0, %4 ]
  %5 = load ptr, ptr %.sroa.03.07, align 8
  %6 = load ptr, ptr %5, align 8
  %7 = getelementptr inbounds nuw i8, ptr %6, i64 48
  %8 = load ptr, ptr %7, align 8
  tail call void %8(ptr noundef nonnull align 8 dereferenceable(8) %5, ptr noundef %2, ptr noundef %3)
  %9 = getelementptr inbounds nuw i8, ptr %.sroa.03.07, i64 8
  %.not = icmp eq ptr %9, %1
  br i1 %.not, label %._crit_edge, label %.lr.ph, !llvm.loop !11

._crit_edge:                                      ; preds = %.lr.ph, %4
  ret void
}